target datalayout = "e-m:e-p270:32:32-p271:32:32-p272:64:64-i64:64-i128:128-f80:128-n8:16:32:64-S128"
target triple = "x86_64-pc-linux-gnu"

%struct.bio_ssl_st = type { ptr, i32, i64, i64, i64, i64 }

; Function Attrs: nounwind uwtable
define void @BIO_ssl_shutdown(ptr noundef %0) #0 {
  %2 = alloca ptr, align 8
  %3 = alloca ptr, align 8
  store ptr %0, ptr %2, align 8, !tbaa !8
  call void @llvm.lifetime.start.p0(i64 8, ptr %3) #5
  br label %4

4:                                                ; preds = %28, %1
  %5 = load ptr, ptr %2, align 8, !tbaa !8
  %6 = icmp ne ptr %5, null
  br i1 %6, label %7, label %31

7:                                                ; preds = %4
  %8 = load ptr, ptr %2, align 8, !tbaa !8
  %9 = call i32 @BIO_method_type(ptr noundef %8)
  %10 = icmp ne i32 %9, 519
  br i1 %10, label %11, label %12

11:                                               ; preds = %7
  br label %28

12:                                               ; preds = %7
  %13 = load ptr, ptr %2, align 8, !tbaa !8
  %14 = call ptr @BIO_get_data(ptr noundef %13)
  store ptr %14, ptr %3, align 8, !tbaa !50
  %15 = load ptr, ptr %3, align 8, !tbaa !50
  %16 = icmp ne ptr %15, null
  br i1 %16, label %17, label %27

17:                                               ; preds = %12
  %18 = load ptr, ptr %3, align 8, !tbaa !50
  %19 = getelementptr inbounds nuw %struct.bio_ssl_st, ptr %18, i32 0, i32 0
  %20 = load ptr, ptr %19, align 8, !tbaa !52
  %21 = icmp ne ptr %20, null
  br i1 %21, label %22, label %27

22:                                               ; preds = %17
  %23 = load ptr, ptr %3, align 8, !tbaa !50
  %24 = getelementptr inbounds nuw %struct.bio_ssl_st, ptr %23, i32 0, i32 0
  %25 = load ptr, ptr %24, align 8, !tbaa !52
  %26 = call i32 @SSL_shutdown(ptr noundef %25)
  br label %27

27:                                               ; preds = %22, %17, %12
  br label %28

28:                                               ; preds = %27, %11
  %29 = load ptr, ptr %2, align 8, !tbaa !8
  %30 = call ptr @BIO_next(ptr noundef %29)
  store ptr %30, ptr %2, align 8, !tbaa !8
  br label %4, !llvm.loop !54

31:                                               ; preds = %4
  call void @llvm.lifetime.end.p0(i64 8, ptr %3) #5
  ret void
}