; Function Attrs: nounwind uwtable
define void @BIO_ssl_shutdown(ptr noundef %0) local_unnamed_addr #1 {
  %.not12 = icmp eq ptr %0, null
  br i1 %.not12, label %._crit_edge, label %.lr.ph

.lr.ph:                                           ; preds = %1, %9
  %.013 = phi ptr [ %10, %9 ], [ %0, %1 ]
  %2 = tail call i32 @BIO_method_type(ptr noundef nonnull %.013) #5
  %.not9 = icmp eq i32 %2, 519
  br i1 %.not9, label %3, label %9

3:                                                ; preds = %.lr.ph
  %4 = tail call ptr @BIO_get_data(ptr noundef nonnull %.013) #5
  %.not10 = icmp eq ptr %4, null
  br i1 %.not10, label %9, label %5

5:                                                ; preds = %3
  %6 = load ptr, ptr %4, align 8, !tbaa !43
  %.not11 = icmp eq ptr %6, null
  br i1 %.not11, label %9, label %7

7:                                                ; preds = %5
  %8 = tail call i32 @SSL_shutdown(ptr noundef nonnull %6) #5
  br label %9

9:                                                ; preds = %3, %5, %7, %.lr.ph
  %10 = tail call ptr @BIO_next(ptr noundef nonnull %.013) #5
  %.not = icmp eq ptr %10, null
  br i1 %.not, label %._crit_edge, label %.lr.ph, !llvm.loop !46

._crit_edge:                                      ; preds = %9, %1
  ret void
}